; ModuleID = '15/1874.c'
source_filename = "15/1874.c"
target datalayout = "e-m:e-p270:32:32-p271:32:32-p272:64:64-i64:64-f80:128-n8:16:32:64-S128"
target triple = "x86_64-pc-linux-gnu"

@.str = private unnamed_addr constant [3 x i8] c"%d\00", align 1
@.str.1 = private unnamed_addr constant [4 x i8] c"%d\0A\00", align 1

; Function Attrs: noinline nounwind uwtable
define dso_local i32 @main() #0 {
  %1 = alloca i32, align 4
  %2 = alloca i32, align 4
  %3 = alloca i32, align 4
  %4 = alloca i32, align 4
  %5 = alloca i32, align 4
  %6 = alloca i32, align 4
  %7 = alloca i32, align 4
  %8 = alloca i32, align 4
  %9 = alloca i32, align 4
  %10 = alloca i32, align 4
  %11 = alloca [100 x [100 x i32]], align 16
  store i32 0, i32* %1, align 4
  %12 = call i32 (i8*, ...) @__isoc99_scanf(i8* getelementptr inbounds ([3 x i8], [3 x i8]* @.str, i64 0, i64 0), i32* %2)
  store i32 0, i32* %3, align 4
  br label %13

13:                                               ; preds = %34, %0
  %14 = load i32, i32* %3, align 4
  %15 = load i32, i32* %2, align 4
  %16 = icmp slt i32 %14, %15
  br i1 %16, label %17, label %37

17:                                               ; preds = %13
  store i32 0, i32* %4, align 4
  br label %18

18:                                               ; preds = %30, %17
  %19 = load i32, i32* %4, align 4
  %20 = load i32, i32* %2, align 4
  %21 = icmp slt i32 %19, %20
  br i1 %21, label %22, label %33

22:                                               ; preds = %18
  %23 = load i32, i32* %3, align 4
  %24 = sext i32 %23 to i64
  %25 = getelementptr inbounds [100 x [100 x i32]], [100 x [100 x i32]]* %11, i64 0, i64 %24
  %26 = load i32, i32* %4, align 4
  %27 = sext i32 %26 to i64
  %28 = getelementptr inbounds [100 x i32], [100 x i32]* %25, i64 0, i64 %27
  %29 = call i32 (i8*, ...) @__isoc99_scanf(i8* getelementptr inbounds ([3 x i8], [3 x i8]* @.str, i64 0, i64 0), i32* %28)
  br label %30

30:                                               ; preds = %22
  %31 = load i32, i32* %4, align 4
  %32 = add nsw i32 %31, 1
  store i32 %32, i32* %4, align 4
  br label %18

33:                                               ; preds = %18
  br label %34

34:                                               ; preds = %33
  %35 = load i32, i32* %3, align 4
  %36 = add nsw i32 %35, 1
  store i32 %36, i32* %3, align 4
  br label %13

37:                                               ; preds = %13
  store i32 0, i32* %10, align 4
  store i32 0, i32* %3, align 4
  br label %38

38:                                               ; preds = %69, %37
  %39 = load i32, i32* %3, align 4
  %40 = load i32, i32* %2, align 4
  %41 = icmp slt i32 %39, %40
  br i1 %41, label %42, label %72

42:                                               ; preds = %38
  store i32 0, i32* %4, align 4
  br label %43

43:                                               ; preds = %61, %42
  %44 = load i32, i32* %4, align 4
  %45 = load i32, i32* %2, align 4
  %46 = icmp slt i32 %44, %45
  br i1 %46, label %47, label %64

47:                                               ; preds = %43
  %48 = load i32, i32* %3, align 4
  %49 = sext i32 %48 to i64
  %50 = getelementptr inbounds [100 x [100 x i32]], [100 x [100 x i32]]* %11, i64 0, i64 %49
  %51 = load i32, i32* %4, align 4
  %52 = sext i32 %51 to i64
  %53 = getelementptr inbounds [100 x i32], [100 x i32]* %50, i64 0, i64 %52
  %54 = load i32, i32* %53, align 4
  %55 = icmp eq i32 %54, 0
  br i1 %55, label %56, label %60

56:                                               ; preds = %47
  %57 = load i32, i32* %3, align 4
  store i32 %57, i32* %5, align 4
  %58 = load i32, i32* %10, align 4
  %59 = add nsw i32 %58, 1
  store i32 %59, i32* %10, align 4
  br label %64

60:                                               ; preds = %47
  br label %61

61:                                               ; preds = %60
  %62 = load i32, i32* %4, align 4
  %63 = add nsw i32 %62, 1
  store i32 %63, i32* %4, align 4
  br label %43

64:                                               ; preds = %56, %43
  %65 = load i32, i32* %10, align 4
  %66 = icmp ne i32 %65, 0
  br i1 %66, label %67, label %68

67:                                               ; preds = %64
  br label %72

68:                                               ; preds = %64
  br label %69

69:                                               ; preds = %68
  %70 = load i32, i32* %3, align 4
  %71 = add nsw i32 %70, 1
  store i32 %71, i32* %3, align 4
  br label %38

72:                                               ; preds = %67, %38
  store i32 0, i32* %10, align 4
  %73 = load i32, i32* %2, align 4
  %74 = sub nsw i32 %73, 1
  store i32 %74, i32* %3, align 4
  br label %75

75:                                               ; preds = %105, %72
  %76 = load i32, i32* %3, align 4
  %77 = icmp sge i32 %76, 0
  br i1 %77, label %78, label %108

78:                                               ; preds = %75
  store i32 0, i32* %4, align 4
  br label %79

79:                                               ; preds = %97, %78
  %80 = load i32, i32* %4, align 4
  %81 = load i32, i32* %2, align 4
  %82 = icmp slt i32 %80, %81
  br i1 %82, label %83, label %100

83:                                               ; preds = %79
  %84 = load i32, i32* %3, align 4
  %85 = sext i32 %84 to i64
  %86 = getelementptr inbounds [100 x [100 x i32]], [100 x [100 x i32]]* %11, i64 0, i64 %85
  %87 = load i32, i32* %4, align 4
  %88 = sext i32 %87 to i64
  %89 = getelementptr inbounds [100 x i32], [100 x i32]* %86, i64 0, i64 %88
  %90 = load i32, i32* %89, align 4
  %91 = icmp eq i32 %90, 0
  br i1 %91, label %92, label %96

92:                                               ; preds = %83
  %93 = load i32, i32* %3, align 4
  store i32 %93, i32* %6, align 4
  %94 = load i32, i32* %10, align 4
  %95 = add nsw i32 %94, 1
  store i32 %95, i32* %10, align 4
  br label %100

96:                                               ; preds = %83
  br label %97

97:                                               ; preds = %96
  %98 = load i32, i32* %4, align 4
  %99 = add nsw i32 %98, 1
  store i32 %99, i32* %4, align 4
  br label %79

100:                                              ; preds = %92, %79
  %101 = load i32, i32* %10, align 4
  %102 = icmp ne i32 %101, 0
  br i1 %102, label %103, label %104

103:                                              ; preds = %100
  br label %108

104:                                              ; preds = %100
  br label %105

105:                                              ; preds = %104
  %106 = load i32, i32* %3, align 4
  %107 = add nsw i32 %106, -1
  store i32 %107, i32* %3, align 4
  br label %75

108:                                              ; preds = %103, %75
  store i32 0, i32* %10, align 4
  store i32 0, i32* %4, align 4
  br label %109

109:                                              ; preds = %140, %108
  %110 = load i32, i32* %4, align 4
  %111 = load i32, i32* %2, align 4
  %112 = icmp slt i32 %110, %111
  br i1 %112, label %113, label %143

113:                                              ; preds = %109
  store i32 0, i32* %3, align 4
  br label %114

114:                                              ; preds = %132, %113
  %115 = load i32, i32* %3, align 4
  %116 = load i32, i32* %2, align 4
  %117 = icmp slt i32 %115, %116
  br i1 %117, label %118, label %135

118:                                              ; preds = %114
  %119 = load i32, i32* %3, align 4
  %120 = sext i32 %119 to i64
  %121 = getelementptr inbounds [100 x [100 x i32]], [100 x [100 x i32]]* %11, i64 0, i64 %120
  %122 = load i32, i32* %4, align 4
  %123 = sext i32 %122 to i64
  %124 = getelementptr inbounds [100 x i32], [100 x i32]* %121, i64 0, i64 %123
  %125 = load i32, i32* %124, align 4
  %126 = icmp eq i32 %125, 0
  br i1 %126, label %127, label %131

127:                                              ; preds = %118
  %128 = load i32, i32* %4, align 4
  store i32 %128, i32* %7, align 4
  %129 = load i32, i32* %10, align 4
  %130 = add nsw i32 %129, 1
  store i32 %130, i32* %10, align 4
  br label %135

131:                                              ; preds = %118
  br label %132

132:                                              ; preds = %131
  %133 = load i32, i32* %3, align 4
  %134 = add nsw i32 %133, 1
  store i32 %134, i32* %3, align 4
  br label %114

135:                                              ; preds = %127, %114
  %136 = load i32, i32* %10, align 4
  %137 = icmp ne i32 %136, 0
  br i1 %137, label %138, label %139

138:                                              ; preds = %135
  br label %143

139:                                              ; preds = %135
  br label %140

140:                                              ; preds = %139
  %141 = load i32, i32* %4, align 4
  %142 = add nsw i32 %141, 1
  store i32 %142, i32* %4, align 4
  br label %109

143:                                              ; preds = %138, %109
  store i32 0, i32* %10, align 4
  %144 = load i32, i32* %2, align 4
  %145 = sub nsw i32 %144, 1
  store i32 %145, i32* %4, align 4
  br label %146

146:                                              ; preds = %176, %143
  %147 = load i32, i32* %4, align 4
  %148 = icmp sge i32 %147, 0
  br i1 %148, label %149, label %179

149:                                              ; preds = %146
  store i32 0, i32* %3, align 4
  br label %150

150:                                              ; preds = %168, %149
  %151 = load i32, i32* %3, align 4
  %152 = load i32, i32* %2, align 4
  %153 = icmp slt i32 %151, %152
  br i1 %153, label %154, label %171

154:                                              ; preds = %150
  %155 = load i32, i32* %3, align 4
  %156 = sext i32 %155 to i64
  %157 = getelementptr inbounds [100 x [100 x i32]], [100 x [100 x i32]]* %11, i64 0, i64 %156
  %158 = load i32, i32* %4, align 4
  %159 = sext i32 %158 to i64
  %160 = getelementptr inbounds [100 x i32], [100 x i32]* %157, i64 0, i64 %159
  %161 = load i32, i32* %160, align 4
  %162 = icmp eq i32 %161, 0
  br i1 %162, label %163, label %167

163:                                              ; preds = %154
  %164 = load i32, i32* %4, align 4
  store i32 %164, i32* %8, align 4
  %165 = load i32, i32* %10, align 4
  %166 = add nsw i32 %165, 1
  store i32 %166, i32* %10, align 4
  br label %171

167:                                              ; preds = %154
  br label %168

168:                                              ; preds = %167
  %169 = load i32, i32* %3, align 4
  %170 = add nsw i32 %169, 1
  store i32 %170, i32* %3, align 4
  br label %150

171:                                              ; preds = %163, %150
  %172 = load i32, i32* %10, align 4
  %173 = icmp ne i32 %172, 0
  br i1 %173, label %174, label %175

174:                                              ; preds = %171
  br label %179

175:                                              ; preds = %171
  br label %176

176:                                              ; preds = %175
  %177 = load i32, i32* %4, align 4
  %178 = add nsw i32 %177, -1
  store i32 %178, i32* %4, align 4
  br label %146

179:                                              ; preds = %174, %146
  %180 = load i32, i32* %6, align 4
  %181 = load i32, i32* %5, align 4
  %182 = sub nsw i32 %180, %181
  %183 = sub nsw i32 %182, 1
  %184 = load i32, i32* %8, align 4
  %185 = load i32, i32* %7, align 4
  %186 = sub nsw i32 %184, %185
  %187 = sub nsw i32 %186, 1
  %188 = mul nsw i32 %183, %187
  store i32 %188, i32* %9, align 4
  %189 = load i32, i32* %9, align 4
  %190 = call i32 (i8*, ...) @printf(i8* getelementptr inbounds ([4 x i8], [4 x i8]* @.str.1, i64 0, i64 0), i32 %189)
  ret i32 0
}

declare dso_local i32 @__isoc99_scanf(i8*, ...) #1

declare dso_local i32 @printf(i8*, ...) #1


!llvm.module.flags = !{!0}
!llvm.ident = !{!1}

!0 = !{i32 1, !"wchar_size", i32 4}
!1 = !{!"clang version 10.0.0-4ubuntu1 "}
